; Function Attrs: mustprogress uwtable
define hidden void @_ZN6google8protobuf8compiler4java17ClassNameResolver35GetKotlinExtensionsClassNameEscapedB5cxx11EPKNS0_10DescriptorE(ptr noalias sret(%"class.std::__cxx11::basic_string") align 8 %agg.result, ptr noundef nonnull align 8 dereferenceable(112) %this, ptr noundef readonly captures(none) %descriptor) local_unnamed_addr #3 align 2 personality ptr @__gxx_personality_v0 {
entry:
  %name_without_package = alloca %"class.std::__cxx11::basic_string", align 8
  %full_name = alloca %"class.std::__cxx11::basic_string", align 8
  %name_without_package_suffix = alloca %"class.std::__cxx11::basic_string", align 8
  %ref.tmp = alloca %"class.absl::lts_20230802::AlphaNum", align 8
  %ref.tmp6 = alloca %"class.absl::lts_20230802::AlphaNum", align 8
  %ref.tmp8 = alloca %"class.absl::lts_20230802::AlphaNum", align 8
  %ref.tmp12 = alloca %"class.absl::lts_20230802::AlphaNum", align 8
  %ref.tmp15 = alloca %"class.absl::lts_20230802::AlphaNum", align 8
  %ref.tmp16 = alloca %"class.std::__cxx11::basic_string", align 8
  %ref.tmp20 = alloca %"class.absl::lts_20230802::AlphaNum", align 8
  %ref.tmp22 = alloca %"class.absl::lts_20230802::AlphaNum", align 8
  call fastcc void @_ZN6google8protobuf8compiler4java12_GLOBAL__N_129ClassNameWithoutPackageKotlinB5cxx11EPKNS0_10DescriptorE(ptr noalias align 8 %name_without_package, ptr noundef %descriptor)
  %call = call { i64, ptr } @_ZNKSt7__cxx1112basic_stringIcSt11char_traitsIcESaIcEEcvSt17basic_string_viewIcS2_EEv(ptr noundef nonnull align 8 dereferenceable(32) %name_without_package) #18
  %0 = extractvalue { i64, ptr } %call, 0
  %1 = extractvalue { i64, ptr } %call, 1
  %file_.i = getelementptr inbounds nuw i8, ptr %descriptor, i64 16
  %2 = load ptr, ptr %file_.i, align 8
  invoke void @_ZN6google8protobuf8compiler4java17ClassNameResolver16GetClassFullNameB5cxx11ESt17basic_string_viewIcSt11char_traitsIcEEPKNS0_14FileDescriptorEbbb(ptr nonnull sret(%"class.std::__cxx11::basic_string") align 8 %full_name, ptr noundef nonnull align 8 dereferenceable(112) %this, i64 %0, ptr %1, ptr noundef %2, i1 noundef zeroext true, i1 noundef zeroext true, i1 noundef zeroext true)
          to label %invoke.cont9 unwind label %lpad

invoke.cont9:                                     ; preds = %entry
  store i64 1, ptr %ref.tmp, align 8
  %3 = getelementptr inbounds nuw i8, ptr %ref.tmp, i64 8
  store ptr @.str.3, ptr %3, align 8
  %call.i = call { i64, ptr } @_ZNKSt7__cxx1112basic_stringIcSt11char_traitsIcESaIcEEcvSt17basic_string_viewIcS2_EEv(ptr noundef nonnull align 8 dereferenceable(32) %name_without_package) #18
  %4 = extractvalue { i64, ptr } %call.i, 0
  store i64 %4, ptr %ref.tmp6, align 8
  %5 = getelementptr inbounds nuw i8, ptr %ref.tmp6, i64 8
  %6 = extractvalue { i64, ptr } %call.i, 1
  store ptr %6, ptr %5, align 8
  store i64 2, ptr %ref.tmp8, align 8
  %7 = getelementptr inbounds nuw i8, ptr %ref.tmp8, i64 8
  store ptr @.str, ptr %7, align 8
  invoke void @_ZN4absl12lts_202308026StrCatB5cxx11ERKNS0_8AlphaNumES3_S3_(ptr nonnull sret(%"class.std::__cxx11::basic_string") align 8 %name_without_package_suffix, ptr noundef nonnull align 8 dereferenceable(48) %ref.tmp, ptr noundef nonnull align 8 dereferenceable(48) %ref.tmp6, ptr noundef nonnull align 8 dereferenceable(48) %ref.tmp8)
          to label %invoke.cont10 unwind label %lpad4

invoke.cont10:                                    ; preds = %invoke.cont9
  %call11 = call noundef i64 @_ZNKSt7__cxx1112basic_stringIcSt11char_traitsIcESaIcEE5rfindERKS4_m(ptr noundef nonnull align 8 dereferenceable(32) %full_name, ptr noundef nonnull align 8 dereferenceable(32) %name_without_package_suffix, i64 noundef -1) #18
  %cmp.not = icmp eq i64 %call11, -1
  br i1 %cmp.not, label %if.end, label %invoke.cont14

invoke.cont14:                                    ; preds = %invoke.cont10
  store i64 1, ptr %ref.tmp12, align 8
  %8 = getelementptr inbounds nuw i8, ptr %ref.tmp12, i64 8
  store ptr @.str.6, ptr %8, align 8
  invoke void @_ZNKSt7__cxx1112basic_stringIcSt11char_traitsIcESaIcEE6substrEmm(ptr nonnull sret(%"class.std::__cxx11::basic_string") align 8 %ref.tmp16, ptr noundef nonnull align 8 dereferenceable(32) %full_name, i64 noundef 0, i64 noundef %call11)
          to label %invoke.cont21 unwind label %lpad13

invoke.cont21:                                    ; preds = %invoke.cont14
  %call.i8 = call { i64, ptr } @_ZNKSt7__cxx1112basic_stringIcSt11char_traitsIcESaIcEEcvSt17basic_string_viewIcS2_EEv(ptr noundef nonnull align 8 dereferenceable(32) %ref.tmp16) #18
  %9 = extractvalue { i64, ptr } %call.i8, 0
  store i64 %9, ptr %ref.tmp15, align 8
  %10 = getelementptr inbounds nuw i8, ptr %ref.tmp15, i64 8
  %11 = extractvalue { i64, ptr } %call.i8, 1
  store ptr %11, ptr %10, align 8
  store i64 1, ptr %ref.tmp20, align 8
  %12 = getelementptr inbounds nuw i8, ptr %ref.tmp20, i64 8
  store ptr @.str.6, ptr %12, align 8
  %call.i10 = call { i64, ptr } @_ZNKSt7__cxx1112basic_stringIcSt11char_traitsIcESaIcEEcvSt17basic_string_viewIcS2_EEv(ptr noundef nonnull align 8 dereferenceable(32) %name_without_package_suffix) #18
  %13 = extractvalue { i64, ptr } %call.i10, 0
  store i64 %13, ptr %ref.tmp22, align 8
  %14 = getelementptr inbounds nuw i8, ptr %ref.tmp22, i64 8
  %15 = extractvalue { i64, ptr } %call.i10, 1
  store ptr %15, ptr %14, align 8
  invoke void @_ZN4absl12lts_202308026StrCatB5cxx11ERKNS0_8AlphaNumES3_S3_S3_(ptr sret(%"class.std::__cxx11::basic_string") align 8 %agg.result, ptr noundef nonnull align 8 dereferenceable(48) %ref.tmp12, ptr noundef nonnull align 8 dereferenceable(48) %ref.tmp15, ptr noundef nonnull align 8 dereferenceable(48) %ref.tmp20, ptr noundef nonnull align 8 dereferenceable(48) %ref.tmp22)
          to label %invoke.cont24 unwind label %lpad18

invoke.cont24:                                    ; preds = %invoke.cont21
  call void @_ZNSt7__cxx1112basic_stringIcSt11char_traitsIcESaIcEED1Ev(ptr noundef nonnull align 8 dereferenceable(32) %ref.tmp16) #18
  br label %cleanup

lpad:                                             ; preds = %entry
  %16 = landingpad { ptr, i32 }
          cleanup
  br label %ehcleanup28

lpad4:                                            ; preds = %invoke.cont9
  %17 = landingpad { ptr, i32 }
          cleanup
  br label %ehcleanup26

lpad13:                                           ; preds = %invoke.cont14
  %18 = landingpad { ptr, i32 }
          cleanup
  br label %ehcleanup

lpad18:                                           ; preds = %invoke.cont21
  %19 = landingpad { ptr, i32 }
          cleanup
  call void @_ZNSt7__cxx1112basic_stringIcSt11char_traitsIcESaIcEED1Ev(ptr noundef nonnull align 8 dereferenceable(32) %ref.tmp16) #18
  br label %ehcleanup

if.end:                                           ; preds = %invoke.cont10
  call void @_ZNSt7__cxx1112basic_stringIcSt11char_traitsIcESaIcEEC1EOS4_(ptr noundef nonnull align 8 dereferenceable(32) %agg.result, ptr noundef nonnull align 8 dereferenceable(32) %full_name) #18
  br label %cleanup

cleanup:                                          ; preds = %if.end, %invoke.cont24
  call void @_ZNSt7__cxx1112basic_stringIcSt11char_traitsIcESaIcEED1Ev(ptr noundef nonnull align 8 dereferenceable(32) %name_without_package_suffix) #18
  call void @_ZNSt7__cxx1112basic_stringIcSt11char_traitsIcESaIcEED1Ev(ptr noundef nonnull align 8 dereferenceable(32) %full_name) #18
  call void @_ZNSt7__cxx1112basic_stringIcSt11char_traitsIcESaIcEED1Ev(ptr noundef nonnull align 8 dereferenceable(32) %name_without_package) #18
  ret void

ehcleanup:                                        ; preds = %lpad18, %lpad13
  %.pn = phi { ptr, i32 } [ %19, %lpad18 ], [ %18, %lpad13 ]
  call void @_ZNSt7__cxx1112basic_stringIcSt11char_traitsIcESaIcEED1Ev(ptr noundef nonnull align 8 dereferenceable(32) %name_without_package_suffix) #18
  br label %ehcleanup26

ehcleanup26:                                      ; preds = %ehcleanup, %lpad4
  %.pn.pn = phi { ptr, i32 } [ %.pn, %ehcleanup ], [ %17, %lpad4 ]
  call void @_ZNSt7__cxx1112basic_stringIcSt11char_traitsIcESaIcEED1Ev(ptr noundef nonnull align 8 dereferenceable(32) %full_name) #18
  br label %ehcleanup28

ehcleanup28:                                      ; preds = %ehcleanup26, %lpad
  %.pn.pn.pn = phi { ptr, i32 } [ %.pn.pn, %ehcleanup26 ], [ %16, %lpad ]
  call void @_ZNSt7__cxx1112basic_stringIcSt11char_traitsIcESaIcEED1Ev(ptr noundef nonnull align 8 dereferenceable(32) %name_without_package) #18
  resume { ptr, i32 } %.pn.pn.pn
}